target datalayout = "e-m:e-p270:32:32-p271:32:32-p272:64:64-i64:64-i128:128-f80:128-n8:16:32:64-S128"
target triple = "x86_64-pc-linux-gnu"

%struct.RelFileLocator = type { i32, i32, i32 }
%struct.RelationData = type { %struct.RelFileLocator, ptr, i32, i32, i8, i8, i8, i8, i8, i32, i32, i32, i32, ptr, ptr, i32, %struct.LockInfoData, ptr, ptr, ptr, ptr, ptr, i8, ptr, ptr, ptr, ptr, ptr, ptr, i32, ptr, i8, ptr, ptr, i32, i8, i32, ptr, i8, ptr, ptr, ptr, ptr, ptr, ptr, ptr, i32, ptr, ptr, ptr, ptr, ptr, ptr, ptr, ptr, ptr, ptr, ptr, ptr, ptr, ptr, ptr, ptr, ptr, ptr, ptr, i32, i8, ptr }
%struct.LockInfoData = type { %struct.LockRelId }
%struct.LockRelId = type { i32, i32 }
%struct.FormData_pg_class = type { i32, %struct.nameData, i32, i32, i32, i32, i32, i32, i32, i32, float, i32, i32, i8, i8, i8, i8, i16, i16, i8, i8, i8, i8, i8, i8, i8, i8, i32, i32, i32 }
%struct.nameData = type { [64 x i8] }
%struct.TableAmRoutine = type { i32, ptr, ptr, ptr, ptr, ptr, ptr, ptr, ptr, ptr, ptr, ptr, ptr, ptr, ptr, ptr, ptr, ptr, ptr, ptr, ptr, ptr, ptr, ptr, ptr, ptr, ptr, ptr, ptr, ptr, ptr, ptr, ptr, ptr, ptr, ptr, ptr, ptr, ptr, ptr, ptr, ptr, ptr, ptr, ptr, ptr }

; Function Attrs: inlinehint nounwind uwtable
define internal ptr @RelationGetSmgr(ptr noundef %0) #3 {
  %2 = alloca ptr, align 8
  %3 = alloca { i64, i32 }, align 8
  store ptr %0, ptr %2, align 8
  %4 = load ptr, ptr %2, align 8
  %5 = getelementptr inbounds nuw %struct.RelationData, ptr %4, i32 0, i32 1
  %6 = load ptr, ptr %5, align 8
  %7 = icmp eq ptr %6, null
  %8 = zext i1 %7 to i32
  %9 = icmp ne i32 %8, 0
  %10 = zext i1 %9 to i32
  %11 = sext i32 %10 to i64
  %12 = call i64 @llvm.expect.i64(i64 %11, i64 0)
  %13 = icmp ne i64 %12, 0
  br i1 %13, label %14, label %30

14:                                               ; preds = %1
  %15 = load ptr, ptr %2, align 8
  %16 = getelementptr inbounds nuw %struct.RelationData, ptr %15, i32 0, i32 0
  %17 = load ptr, ptr %2, align 8
  %18 = getelementptr inbounds nuw %struct.RelationData, ptr %17, i32 0, i32 3
  %19 = load i32, ptr %18, align 4
  call void @llvm.memcpy.p0.p0.i64(ptr align 8 %3, ptr align 8 %16, i64 12, i1 false)
  %20 = getelementptr inbounds nuw { i64, i32 }, ptr %3, i32 0, i32 0
  %21 = load i64, ptr %20, align 8
  %22 = getelementptr inbounds nuw { i64, i32 }, ptr %3, i32 0, i32 1
  %23 = load i32, ptr %22, align 8
  %24 = call ptr @smgropen(i64 %21, i32 %23, i32 noundef %19)
  %25 = load ptr, ptr %2, align 8
  %26 = getelementptr inbounds nuw %struct.RelationData, ptr %25, i32 0, i32 1
  store ptr %24, ptr %26, align 8
  %27 = load ptr, ptr %2, align 8
  %28 = getelementptr inbounds nuw %struct.RelationData, ptr %27, i32 0, i32 1
  %29 = load ptr, ptr %28, align 8
  call void @smgrpin(ptr noundef %29)
  br label %30

30:                                               ; preds = %14, %1
  %31 = load ptr, ptr %2, align 8
  %32 = getelementptr inbounds nuw %struct.RelationData, ptr %31, i32 0, i32 1
  %33 = load ptr, ptr %32, align 8
  ret ptr %33
}

; Function Attrs: inlinehint nounwind uwtable
define internal i64 @table_relation_size(ptr noundef %0, i32 noundef %1) #3 {
  %3 = alloca ptr, align 8
  %4 = alloca i32, align 4
  store ptr %0, ptr %3, align 8
  store i32 %1, ptr %4, align 4
  %5 = load ptr, ptr %3, align 8
  %6 = getelementptr inbounds nuw %struct.RelationData, ptr %5, i32 0, i32 47
  %7 = load ptr, ptr %6, align 8
  %8 = getelementptr inbounds nuw %struct.TableAmRoutine, ptr %7, i32 0, i32 37
  %9 = load ptr, ptr %8, align 8
  %10 = load ptr, ptr %3, align 8
  %11 = load i32, ptr %4, align 4
  %12 = call i64 %9(ptr noundef %10, i32 noundef %11)
  ret i64 %12
}

; Function Attrs: nounwind uwtable
define dso_local i32 @RelationGetNumberOfBlocksInFork(ptr noundef %0, i32 noundef %1) #0 {
  %3 = alloca i32, align 4
  %4 = alloca ptr, align 8
  %5 = alloca i32, align 4
  %6 = alloca i64, align 8
  store ptr %0, ptr %4, align 8
  store i32 %1, ptr %5, align 4
  %7 = load ptr, ptr %4, align 8
  %8 = getelementptr inbounds nuw %struct.RelationData, ptr %7, i32 0, i32 13
  %9 = load ptr, ptr %8, align 8
  %10 = getelementptr inbounds nuw %struct.FormData_pg_class, ptr %9, i32 0, i32 16
  %11 = load i8, ptr %10, align 1
  %12 = sext i8 %11 to i32
  %13 = icmp eq i32 %12, 114
  br i1 %13, label %30, label %14

14:                                               ; preds = %2
  %15 = load ptr, ptr %4, align 8
  %16 = getelementptr inbounds nuw %struct.RelationData, ptr %15, i32 0, i32 13
  %17 = load ptr, ptr %16, align 8
  %18 = getelementptr inbounds nuw %struct.FormData_pg_class, ptr %17, i32 0, i32 16
  %19 = load i8, ptr %18, align 1
  %20 = sext i8 %19 to i32
  %21 = icmp eq i32 %20, 116
  br i1 %21, label %30, label %22

22:                                               ; preds = %14
  %23 = load ptr, ptr %4, align 8
  %24 = getelementptr inbounds nuw %struct.RelationData, ptr %23, i32 0, i32 13
  %25 = load ptr, ptr %24, align 8
  %26 = getelementptr inbounds nuw %struct.FormData_pg_class, ptr %25, i32 0, i32 16
  %27 = load i8, ptr %26, align 1
  %28 = sext i8 %27 to i32
  %29 = icmp eq i32 %28, 109
  br i1 %29, label %30, label %38

30:                                               ; preds = %22, %14, %2
  call void @llvm.lifetime.start.p0(i64 8, ptr %6) #10
  %31 = load ptr, ptr %4, align 8
  %32 = load i32, ptr %5, align 4
  %33 = call i64 @table_relation_size(ptr noundef %31, i32 noundef %32)
  store i64 %33, ptr %6, align 8
  %34 = load i64, ptr %6, align 8
  %35 = add i64 %34, 8191
  %36 = udiv i64 %35, 8192
  %37 = trunc i64 %36 to i32
  store i32 %37, ptr %3, align 4
  call void @llvm.lifetime.end.p0(i64 8, ptr %6) #10
  br label %86

38:                                               ; preds = %22
  %39 = load ptr, ptr %4, align 8
  %40 = getelementptr inbounds nuw %struct.RelationData, ptr %39, i32 0, i32 13
  %41 = load ptr, ptr %40, align 8
  %42 = getelementptr inbounds nuw %struct.FormData_pg_class, ptr %41, i32 0, i32 16
  %43 = load i8, ptr %42, align 1
  %44 = sext i8 %43 to i32
  %45 = icmp eq i32 %44, 114
  br i1 %45, label %78, label %46

46:                                               ; preds = %38
  %47 = load ptr, ptr %4, align 8
  %48 = getelementptr inbounds nuw %struct.RelationData, ptr %47, i32 0, i32 13
  %49 = load ptr, ptr %48, align 8
  %50 = getelementptr inbounds nuw %struct.FormData_pg_class, ptr %49, i32 0, i32 16
  %51 = load i8, ptr %50, align 1
  %52 = sext i8 %51 to i32
  %53 = icmp eq i32 %52, 105
  br i1 %53, label %78, label %54

54:                                               ; preds = %46
  %55 = load ptr, ptr %4, align 8
  %56 = getelementptr inbounds nuw %struct.RelationData, ptr %55, i32 0, i32 13
  %57 = load ptr, ptr %56, align 8
  %58 = getelementptr inbounds nuw %struct.FormData_pg_class, ptr %57, i32 0, i32 16
  %59 = load i8, ptr %58, align 1
  %60 = sext i8 %59 to i32
  %61 = icmp eq i32 %60, 83
  br i1 %61, label %78, label %62

62:                                               ; preds = %54
  %63 = load ptr, ptr %4, align 8
  %64 = getelementptr inbounds nuw %struct.RelationData, ptr %63, i32 0, i32 13
  %65 = load ptr, ptr %64, align 8
  %66 = getelementptr inbounds nuw %struct.FormData_pg_class, ptr %65, i32 0, i32 16
  %67 = load i8, ptr %66, align 1
  %68 = sext i8 %67 to i32
  %69 = icmp eq i32 %68, 116
  br i1 %69, label %78, label %70

70:                                               ; preds = %62
  %71 = load ptr, ptr %4, align 8
  %72 = getelementptr inbounds nuw %struct.RelationData, ptr %71, i32 0, i32 13
  %73 = load ptr, ptr %72, align 8
  %74 = getelementptr inbounds nuw %struct.FormData_pg_class, ptr %73, i32 0, i32 16
  %75 = load i8, ptr %74, align 1
  %76 = sext i8 %75 to i32
  %77 = icmp eq i32 %76, 109
  br i1 %77, label %78, label %83

78:                                               ; preds = %70, %62, %54, %46, %38
  %79 = load ptr, ptr %4, align 8
  %80 = call ptr @RelationGetSmgr(ptr noundef %79)
  %81 = load i32, ptr %5, align 4
  %82 = call i32 @smgrnblocks(ptr noundef %80, i32 noundef %81)
  store i32 %82, ptr %3, align 4
  br label %86

83:                                               ; preds = %70
  br label %84

84:                                               ; preds = %83
  br label %85

85:                                               ; preds = %84
  store i32 0, ptr %3, align 4
  br label %86

86:                                               ; preds = %85, %78, %30
  %87 = load i32, ptr %3, align 4
  ret i32 %87
}