; Function Attrs: nounwind uwtable
define dso_local i32 @RelationGetNumberOfBlocksInFork(ptr noundef %0, i32 noundef %1) local_unnamed_addr #0 {
  %3 = getelementptr inbounds nuw i8, ptr %0, i64 56
  %4 = load ptr, ptr %3, align 8
  %5 = getelementptr inbounds nuw i8, ptr %4, i64 115
  %6 = load i8, ptr %5, align 1
  switch i8 %6, label %26 [
    i8 114, label %7
    i8 116, label %7
    i8 109, label %7
    i8 105, label %16
    i8 83, label %16
  ]

7:                                                ; preds = %2, %2, %2
  %8 = getelementptr inbounds nuw i8, ptr %0, i64 320
  %9 = load ptr, ptr %8, align 8
  %10 = getelementptr inbounds nuw i8, ptr %9, i64 296
  %11 = load ptr, ptr %10, align 8
  %12 = tail call i64 %11(ptr noundef nonnull %0, i32 noundef %1) #16
  %13 = add i64 %12, 8191
  %14 = lshr i64 %13, 13
  %15 = trunc i64 %14 to i32
  br label %26

16:                                               ; preds = %2, %2
  %17 = getelementptr inbounds nuw i8, ptr %0, i64 16
  %18 = load ptr, ptr %17, align 8
  %19 = icmp eq ptr %18, null
  br i1 %19, label %20, label %RelationGetSmgr.exit, !prof !7

20:                                               ; preds = %16
  %21 = getelementptr inbounds nuw i8, ptr %0, i64 28
  %22 = load i32, ptr %21, align 4
  %.sroa.0.0.copyload.i = load i64, ptr %0, align 8
  %.sroa.2.0..sroa_idx.i = getelementptr inbounds nuw i8, ptr %0, i64 8
  %.sroa.2.0.copyload.i = load i32, ptr %.sroa.2.0..sroa_idx.i, align 8
  %23 = tail call ptr @smgropen(i64 %.sroa.0.0.copyload.i, i32 %.sroa.2.0.copyload.i, i32 noundef %22) #16
  store ptr %23, ptr %17, align 8
  tail call void @smgrpin(ptr noundef %23) #16
  %.pre.i = load ptr, ptr %17, align 8
  br label %RelationGetSmgr.exit

RelationGetSmgr.exit:                             ; preds = %16, %20
  %24 = phi ptr [ %.pre.i, %20 ], [ %18, %16 ]
  %25 = tail call i32 @smgrnblocks(ptr noundef %24, i32 noundef %1) #16
  br label %26

26:                                               ; preds = %2, %RelationGetSmgr.exit, %7
  %.0 = phi i32 [ %15, %7 ], [ %25, %RelationGetSmgr.exit ], [ 0, %2 ]
  ret i32 %.0
}